target datalayout = "e-m:e-p270:32:32-p271:32:32-p272:64:64-i64:64-i128:128-f80:128-n8:16:32:64-S128"
target triple = "x86_64-pc-linux-gnu"

%struct.AlterEnumStmt = type { i32, ptr, ptr, ptr, ptr, i8, i8 }

; Function Attrs: nounwind uwtable
define internal zeroext i1 @_equalAlterEnumStmt(ptr noundef %0, ptr noundef %1) #0 {
  %3 = alloca i1, align 1
  %4 = alloca ptr, align 8
  %5 = alloca ptr, align 8
  store ptr %0, ptr %4, align 8
  store ptr %1, ptr %5, align 8
  br label %6

6:                                                ; preds = %2
  %7 = load ptr, ptr %4, align 8
  %8 = getelementptr inbounds nuw %struct.AlterEnumStmt, ptr %7, i32 0, i32 1
  %9 = load ptr, ptr %8, align 8
  %10 = load ptr, ptr %5, align 8
  %11 = getelementptr inbounds nuw %struct.AlterEnumStmt, ptr %10, i32 0, i32 1
  %12 = load ptr, ptr %11, align 8
  %13 = call zeroext i1 @equal(ptr noundef %9, ptr noundef %12)
  br i1 %13, label %15, label %14

14:                                               ; preds = %6
  store i1 false, ptr %3, align 1
  br label %137

15:                                               ; preds = %6
  br label %16

16:                                               ; preds = %15
  br label %17

17:                                               ; preds = %16
  %18 = load ptr, ptr %4, align 8
  %19 = getelementptr inbounds nuw %struct.AlterEnumStmt, ptr %18, i32 0, i32 2
  %20 = load ptr, ptr %19, align 8
  %21 = icmp ne ptr %20, null
  br i1 %21, label %22, label %36

22:                                               ; preds = %17
  %23 = load ptr, ptr %5, align 8
  %24 = getelementptr inbounds nuw %struct.AlterEnumStmt, ptr %23, i32 0, i32 2
  %25 = load ptr, ptr %24, align 8
  %26 = icmp ne ptr %25, null
  br i1 %26, label %27, label %36

27:                                               ; preds = %22
  %28 = load ptr, ptr %4, align 8
  %29 = getelementptr inbounds nuw %struct.AlterEnumStmt, ptr %28, i32 0, i32 2
  %30 = load ptr, ptr %29, align 8
  %31 = load ptr, ptr %5, align 8
  %32 = getelementptr inbounds nuw %struct.AlterEnumStmt, ptr %31, i32 0, i32 2
  %33 = load ptr, ptr %32, align 8
  %34 = call i32 @strcmp(ptr noundef %30, ptr noundef %33) #8
  %35 = icmp eq i32 %34, 0
  br i1 %35, label %45, label %44

36:                                               ; preds = %22, %17
  %37 = load ptr, ptr %4, align 8
  %38 = getelementptr inbounds nuw %struct.AlterEnumStmt, ptr %37, i32 0, i32 2
  %39 = load ptr, ptr %38, align 8
  %40 = load ptr, ptr %5, align 8
  %41 = getelementptr inbounds nuw %struct.AlterEnumStmt, ptr %40, i32 0, i32 2
  %42 = load ptr, ptr %41, align 8
  %43 = icmp eq ptr %39, %42
  br i1 %43, label %45, label %44

44:                                               ; preds = %36, %27
  store i1 false, ptr %3, align 1
  br label %137

45:                                               ; preds = %36, %27
  br label %46

46:                                               ; preds = %45
  br label %47

47:                                               ; preds = %46
  %48 = load ptr, ptr %4, align 8
  %49 = getelementptr inbounds nuw %struct.AlterEnumStmt, ptr %48, i32 0, i32 3
  %50 = load ptr, ptr %49, align 8
  %51 = icmp ne ptr %50, null
  br i1 %51, label %52, label %66

52:                                               ; preds = %47
  %53 = load ptr, ptr %5, align 8
  %54 = getelementptr inbounds nuw %struct.AlterEnumStmt, ptr %53, i32 0, i32 3
  %55 = load ptr, ptr %54, align 8
  %56 = icmp ne ptr %55, null
  br i1 %56, label %57, label %66

57:                                               ; preds = %52
  %58 = load ptr, ptr %4, align 8
  %59 = getelementptr inbounds nuw %struct.AlterEnumStmt, ptr %58, i32 0, i32 3
  %60 = load ptr, ptr %59, align 8
  %61 = load ptr, ptr %5, align 8
  %62 = getelementptr inbounds nuw %struct.AlterEnumStmt, ptr %61, i32 0, i32 3
  %63 = load ptr, ptr %62, align 8
  %64 = call i32 @strcmp(ptr noundef %60, ptr noundef %63) #8
  %65 = icmp eq i32 %64, 0
  br i1 %65, label %75, label %74

66:                                               ; preds = %52, %47
  %67 = load ptr, ptr %4, align 8
  %68 = getelementptr inbounds nuw %struct.AlterEnumStmt, ptr %67, i32 0, i32 3
  %69 = load ptr, ptr %68, align 8
  %70 = load ptr, ptr %5, align 8
  %71 = getelementptr inbounds nuw %struct.AlterEnumStmt, ptr %70, i32 0, i32 3
  %72 = load ptr, ptr %71, align 8
  %73 = icmp eq ptr %69, %72
  br i1 %73, label %75, label %74

74:                                               ; preds = %66, %57
  store i1 false, ptr %3, align 1
  br label %137

75:                                               ; preds = %66, %57
  br label %76

76:                                               ; preds = %75
  br label %77

77:                                               ; preds = %76
  %78 = load ptr, ptr %4, align 8
  %79 = getelementptr inbounds nuw %struct.AlterEnumStmt, ptr %78, i32 0, i32 4
  %80 = load ptr, ptr %79, align 8
  %81 = icmp ne ptr %80, null
  br i1 %81, label %82, label %96

82:                                               ; preds = %77
  %83 = load ptr, ptr %5, align 8
  %84 = getelementptr inbounds nuw %struct.AlterEnumStmt, ptr %83, i32 0, i32 4
  %85 = load ptr, ptr %84, align 8
  %86 = icmp ne ptr %85, null
  br i1 %86, label %87, label %96

87:                                               ; preds = %82
  %88 = load ptr, ptr %4, align 8
  %89 = getelementptr inbounds nuw %struct.AlterEnumStmt, ptr %88, i32 0, i32 4
  %90 = load ptr, ptr %89, align 8
  %91 = load ptr, ptr %5, align 8
  %92 = getelementptr inbounds nuw %struct.AlterEnumStmt, ptr %91, i32 0, i32 4
  %93 = load ptr, ptr %92, align 8
  %94 = call i32 @strcmp(ptr noundef %90, ptr noundef %93) #8
  %95 = icmp eq i32 %94, 0
  br i1 %95, label %105, label %104

96:                                               ; preds = %82, %77
  %97 = load ptr, ptr %4, align 8
  %98 = getelementptr inbounds nuw %struct.AlterEnumStmt, ptr %97, i32 0, i32 4
  %99 = load ptr, ptr %98, align 8
  %100 = load ptr, ptr %5, align 8
  %101 = getelementptr inbounds nuw %struct.AlterEnumStmt, ptr %100, i32 0, i32 4
  %102 = load ptr, ptr %101, align 8
  %103 = icmp eq ptr %99, %102
  br i1 %103, label %105, label %104

104:                                              ; preds = %96, %87
  store i1 false, ptr %3, align 1
  br label %137

105:                                              ; preds = %96, %87
  br label %106

106:                                              ; preds = %105
  br label %107

107:                                              ; preds = %106
  %108 = load ptr, ptr %4, align 8
  %109 = getelementptr inbounds nuw %struct.AlterEnumStmt, ptr %108, i32 0, i32 5
  %110 = load i8, ptr %109, align 8, !range !4, !noundef !5
  %111 = trunc i8 %110 to i1
  %112 = zext i1 %111 to i32
  %113 = load ptr, ptr %5, align 8
  %114 = getelementptr inbounds nuw %struct.AlterEnumStmt, ptr %113, i32 0, i32 5
  %115 = load i8, ptr %114, align 8, !range !4, !noundef !5
  %116 = trunc i8 %115 to i1
  %117 = zext i1 %116 to i32
  %118 = icmp ne i32 %112, %117
  br i1 %118, label %119, label %120

119:                                              ; preds = %107
  store i1 false, ptr %3, align 1
  br label %137

120:                                              ; preds = %107
  br label %121

121:                                              ; preds = %120
  br label %122

122:                                              ; preds = %121
  %123 = load ptr, ptr %4, align 8
  %124 = getelementptr inbounds nuw %struct.AlterEnumStmt, ptr %123, i32 0, i32 6
  %125 = load i8, ptr %124, align 1, !range !4, !noundef !5
  %126 = trunc i8 %125 to i1
  %127 = zext i1 %126 to i32
  %128 = load ptr, ptr %5, align 8
  %129 = getelementptr inbounds nuw %struct.AlterEnumStmt, ptr %128, i32 0, i32 6
  %130 = load i8, ptr %129, align 1, !range !4, !noundef !5
  %131 = trunc i8 %130 to i1
  %132 = zext i1 %131 to i32
  %133 = icmp ne i32 %127, %132
  br i1 %133, label %134, label %135

134:                                              ; preds = %122
  store i1 false, ptr %3, align 1
  br label %137

135:                                              ; preds = %122
  br label %136

136:                                              ; preds = %135
  store i1 true, ptr %3, align 1
  br label %137

137:                                              ; preds = %136, %134, %119, %104, %74, %44, %14
  %138 = load i1, ptr %3, align 1
  ret i1 %138
}