; Function Attrs: nounwind uwtable
define internal fastcc noundef zeroext i1 @_equalAlterEnumStmt(ptr noundef nonnull readonly captures(none) %0, ptr noundef nonnull readonly captures(none) %1) unnamed_addr #0 {
  %3 = getelementptr inbounds nuw i8, ptr %0, i64 8
  %4 = load ptr, ptr %3, align 8
  %5 = getelementptr inbounds nuw i8, ptr %1, i64 8
  %6 = load ptr, ptr %5, align 8
  %7 = tail call zeroext i1 @equal(ptr noundef %4, ptr noundef %6)
  br i1 %7, label %8, label %.thread

8:                                                ; preds = %2
  %9 = getelementptr inbounds nuw i8, ptr %0, i64 16
  %10 = load ptr, ptr %9, align 8
  %.not = icmp eq ptr %10, null
  %.phi.trans.insert = getelementptr inbounds nuw i8, ptr %1, i64 16
  %.pre = load ptr, ptr %.phi.trans.insert, align 8
  br i1 %.not, label %15, label %11

11:                                               ; preds = %8
  %.not31 = icmp eq ptr %.pre, null
  br i1 %.not31, label %.thread, label %12

12:                                               ; preds = %11
  %13 = tail call i32 @strcmp(ptr noundef nonnull dereferenceable(1) %10, ptr noundef nonnull dereferenceable(1) %.pre) #11
  %14 = icmp eq i32 %13, 0
  br i1 %14, label %17, label %.thread

15:                                               ; preds = %8
  %16 = icmp eq ptr %10, %.pre
  br i1 %16, label %17, label %.thread

17:                                               ; preds = %15, %12
  %18 = getelementptr inbounds nuw i8, ptr %0, i64 24
  %19 = load ptr, ptr %18, align 8
  %.not32 = icmp eq ptr %19, null
  %.phi.trans.insert39 = getelementptr inbounds nuw i8, ptr %1, i64 24
  %.pre40 = load ptr, ptr %.phi.trans.insert39, align 8
  br i1 %.not32, label %24, label %20

20:                                               ; preds = %17
  %.not33 = icmp eq ptr %.pre40, null
  br i1 %.not33, label %.thread, label %21

21:                                               ; preds = %20
  %22 = tail call i32 @strcmp(ptr noundef nonnull dereferenceable(1) %19, ptr noundef nonnull dereferenceable(1) %.pre40) #11
  %23 = icmp eq i32 %22, 0
  br i1 %23, label %26, label %.thread

24:                                               ; preds = %17
  %25 = icmp eq ptr %19, %.pre40
  br i1 %25, label %26, label %.thread

26:                                               ; preds = %24, %21
  %27 = getelementptr inbounds nuw i8, ptr %0, i64 32
  %28 = load ptr, ptr %27, align 8
  %.not34 = icmp eq ptr %28, null
  %.phi.trans.insert42 = getelementptr inbounds nuw i8, ptr %1, i64 32
  %.pre43 = load ptr, ptr %.phi.trans.insert42, align 8
  br i1 %.not34, label %33, label %29

29:                                               ; preds = %26
  %.not35 = icmp eq ptr %.pre43, null
  br i1 %.not35, label %.thread, label %30

30:                                               ; preds = %29
  %31 = tail call i32 @strcmp(ptr noundef nonnull dereferenceable(1) %28, ptr noundef nonnull dereferenceable(1) %.pre43) #11
  %32 = icmp eq i32 %31, 0
  br i1 %32, label %35, label %.thread

33:                                               ; preds = %26
  %34 = icmp eq ptr %28, %.pre43
  br i1 %34, label %35, label %.thread

35:                                               ; preds = %33, %30
  %36 = getelementptr inbounds nuw i8, ptr %0, i64 40
  %37 = load i8, ptr %36, align 8, !range !4, !noundef !5
  %38 = getelementptr inbounds nuw i8, ptr %1, i64 40
  %39 = load i8, ptr %38, align 8, !range !4, !noundef !5
  %.not36 = icmp eq i8 %37, %39
  br i1 %.not36, label %40, label %.thread

40:                                               ; preds = %35
  %41 = getelementptr inbounds nuw i8, ptr %0, i64 41
  %42 = load i8, ptr %41, align 1, !range !4, !noundef !5
  %43 = getelementptr inbounds nuw i8, ptr %1, i64 41
  %44 = load i8, ptr %43, align 1, !range !4, !noundef !5
  %.not37 = icmp eq i8 %42, %44
  br label %.thread

.thread:                                          ; preds = %29, %20, %11, %40, %35, %30, %33, %21, %24, %12, %15, %2
  %.0 = phi i1 [ false, %2 ], [ false, %15 ], [ false, %12 ], [ false, %24 ], [ false, %21 ], [ false, %33 ], [ false, %30 ], [ false, %35 ], [ %.not37, %40 ], [ false, %11 ], [ false, %20 ], [ false, %29 ]
  ret i1 %.0
}